target datalayout = "e-m:e-p270:32:32-p271:32:32-p272:64:64-i64:64-i128:128-f80:128-n8:16:32:64-S128"
target triple = "x86_64-unknown-linux-gnu"

; Function Attrs: mustprogress uwtable
define hidden void @_ZN15static_features7collectEjPKP4expr(ptr noundef nonnull align 8 dereferenceable(792) %this, i32 noundef %num_formulas, ptr noundef %formulas) #4 align 2 {
entry:
  %this.addr = alloca ptr, align 8
  %num_formulas.addr = alloca i32, align 4
  %formulas.addr = alloca ptr, align 8
  %i = alloca i32, align 4
  store ptr %this, ptr %this.addr, align 8
  store i32 %num_formulas, ptr %num_formulas.addr, align 4
  store ptr %formulas, ptr %formulas.addr, align 8
  %this1 = load ptr, ptr %this.addr, align 8
  store i32 0, ptr %i, align 4
  br label %for.cond

for.cond:                                         ; preds = %for.inc, %entry
  %0 = load i32, ptr %i, align 4
  %1 = load i32, ptr %num_formulas.addr, align 4
  %cmp = icmp ult i32 %0, %1
  br i1 %cmp, label %for.body, label %for.end

for.body:                                         ; preds = %for.cond
  %2 = load ptr, ptr %formulas.addr, align 8
  %3 = load i32, ptr %i, align 4
  %idxprom = zext i32 %3 to i64
  %arrayidx = getelementptr inbounds ptr, ptr %2, i64 %idxprom
  %4 = load ptr, ptr %arrayidx, align 8
  call void @_ZN15static_features12process_rootEP4expr(ptr noundef nonnull align 8 dereferenceable(792) %this1, ptr noundef %4)
  br label %for.inc

for.inc:                                          ; preds = %for.body
  %5 = load i32, ptr %i, align 4
  %inc = add i32 %5, 1
  store i32 %inc, ptr %i, align 4
  br label %for.cond, !llvm.loop !11

for.end:                                          ; preds = %for.cond
  ret void
}