; Function Attrs: mustprogress uwtable
define hidden void @_ZN15static_features7collectEjPKP4expr(ptr noundef nonnull align 8 dereferenceable(792) %this, i32 noundef %num_formulas, ptr nocapture noundef readonly %formulas) local_unnamed_addr #3 align 2 {
entry:
  %cmp3.not = icmp eq i32 %num_formulas, 0
  br i1 %cmp3.not, label %for.end, label %for.body.preheader

for.body.preheader:                               ; preds = %entry
  %wide.trip.count = zext i32 %num_formulas to i64
  br label %for.body

for.body:                                         ; preds = %for.body.preheader, %for.body
  %indvars.iv = phi i64 [ 0, %for.body.preheader ], [ %indvars.iv.next, %for.body ]
  %arrayidx = getelementptr inbounds ptr, ptr %formulas, i64 %indvars.iv
  %0 = load ptr, ptr %arrayidx, align 8
  tail call void @_ZN15static_features12process_rootEP4expr(ptr noundef nonnull align 8 dereferenceable(792) %this, ptr noundef %0)
  %indvars.iv.next = add nuw nsw i64 %indvars.iv, 1
  %exitcond.not = icmp eq i64 %indvars.iv.next, %wide.trip.count
  br i1 %exitcond.not, label %for.end, label %for.body, !llvm.loop !23

for.end:                                          ; preds = %for.body, %entry
  ret void
}